; Function Attrs: nounwind uwtable
define noalias nonnull ptr @l_Lean_IR_ExplicitRC_addDec___boxed(ptr noundef %0, ptr noundef %1, ptr noundef %2) local_unnamed_addr #0 {
  %4 = tail call ptr @l_Lean_IR_ExplicitRC_getVarInfo(ptr noundef readonly %0, ptr noundef %1)
  %5 = getelementptr inbounds nuw i8, ptr %4, i64 9
  %6 = load i8, ptr %5, align 1, !tbaa !15
  %7 = ptrtoint ptr %4 to i64
  %8 = and i64 %7, 1
  %.not.i5 = icmp eq i64 %8, 0
  br i1 %.not.i5, label %9, label %lean_dec.exit.i

9:                                                ; preds = %3
  %10 = load i32, ptr %4, align 4, !tbaa !8
  %11 = icmp sgt i32 %10, 1
  br i1 %11, label %12, label %14, !prof !11

12:                                               ; preds = %9
  %13 = add nsw i32 %10, -1
  store i32 %13, ptr %4, align 4, !tbaa !8
  br label %lean_dec.exit.i

14:                                               ; preds = %9
  %.not.i.i = icmp eq i32 %10, 0
  br i1 %.not.i.i, label %lean_dec.exit.i, label %15

15:                                               ; preds = %14
  tail call void @lean_dec_ref_cold(ptr noundef nonnull %4) #6
  br label %lean_dec.exit.i

lean_dec.exit.i:                                  ; preds = %15, %14, %12, %3
  tail call void @lean_inc_heartbeat() #6
  %16 = tail call noalias ptr @mi_malloc_small(i64 noundef 40) #6
  %17 = icmp eq ptr %16, null
  br i1 %17, label %18, label %l_Lean_IR_ExplicitRC_addDec.exit

18:                                               ; preds = %lean_dec.exit.i
  tail call void @lean_internal_panic_out_of_memory() #7
  unreachable

l_Lean_IR_ExplicitRC_addDec.exit:                 ; preds = %lean_dec.exit.i
  %19 = getelementptr inbounds nuw i8, ptr %16, i64 4
  %20 = getelementptr inbounds nuw i8, ptr %16, i64 32
  store i64 1, ptr %20, align 8, !tbaa !13
  store i32 1, ptr %16, align 4, !tbaa !8
  store i32 117637160, ptr %19, align 4
  %21 = getelementptr inbounds nuw i8, ptr %16, i64 8
  store ptr %1, ptr %21, align 8, !tbaa !4
  %22 = getelementptr inbounds nuw i8, ptr %16, i64 16
  store ptr inttoptr (i64 3 to ptr), ptr %22, align 8, !tbaa !4
  %23 = getelementptr inbounds nuw i8, ptr %16, i64 24
  store ptr %2, ptr %23, align 8, !tbaa !4
  %24 = getelementptr inbounds nuw i8, ptr %16, i64 33
  store i8 %6, ptr %24, align 1, !tbaa !15
  %25 = ptrtoint ptr %0 to i64
  %26 = and i64 %25, 1
  %.not = icmp eq i64 %26, 0
  br i1 %.not, label %27, label %lean_dec.exit

27:                                               ; preds = %l_Lean_IR_ExplicitRC_addDec.exit
  %28 = load i32, ptr %0, align 4, !tbaa !8
  %29 = icmp sgt i32 %28, 1
  br i1 %29, label %30, label %32, !prof !11

30:                                               ; preds = %27
  %31 = add nsw i32 %28, -1
  store i32 %31, ptr %0, align 4, !tbaa !8
  br label %lean_dec.exit

32:                                               ; preds = %27
  %.not.i = icmp eq i32 %28, 0
  br i1 %.not.i, label %lean_dec.exit, label %33

33:                                               ; preds = %32
  tail call void @lean_dec_ref_cold(ptr noundef nonnull %0) #6
  br label %lean_dec.exit

lean_dec.exit:                                    ; preds = %33, %32, %30, %l_Lean_IR_ExplicitRC_addDec.exit
  ret ptr %16
}